; Function Attrs: mustprogress nofree norecurse nosync nounwind memory(write, argmem: readwrite, inaccessiblemem: none) uwtable
define hidden void @_ZN6hermes3hbc25BytecodeFunctionGenerator16updateJumpTargetEjii(ptr noundef nonnull readonly align 8 captures(none) dereferenceable(200) %this, i32 noundef %loc, i32 noundef %newVal, i32 noundef %bytes) local_unnamed_addr #4 align 2 {
entry:
  %tobool.not4 = icmp eq i32 %bytes, 0
  br i1 %tobool.not4, label %for.end, label %for.body

for.body:                                         ; preds = %entry, %for.body
  %bytes.addr.07 = phi i32 [ %dec, %for.body ], [ %bytes, %entry ]
  %newVal.addr.06 = phi i32 [ %shr, %for.body ], [ %newVal, %entry ]
  %loc.addr.05 = phi i32 [ %inc, %for.body ], [ %loc, %entry ]
  %conv = trunc i32 %newVal.addr.06 to i8
  %conv2 = zext i32 %loc.addr.05 to i64
  %0 = load ptr, ptr %this, align 8
  %add.ptr.i = getelementptr inbounds nuw i8, ptr %0, i64 %conv2
  store i8 %conv, ptr %add.ptr.i, align 1
  %shr = ashr i32 %newVal.addr.06, 8
  %dec = add nsw i32 %bytes.addr.07, -1
  %inc = add i32 %loc.addr.05, 1
  %tobool.not = icmp eq i32 %dec, 0
  br i1 %tobool.not, label %for.end, label %for.body, !llvm.loop !102

for.end:                                          ; preds = %for.body, %entry
  ret void
}